; Function Attrs: nounwind uwtable
define internal range(i32 0, 2) i32 @rsa_to_RSA_pem_encode(ptr noundef %0, ptr noundef %1, ptr noundef %2, ptr noundef readnone captures(address_is_null) %3, i32 noundef %4, ptr noundef %5, ptr noundef %6) #0 {
  %.not = icmp eq ptr %3, null
  br i1 %.not, label %9, label %8

8:                                                ; preds = %7
  tail call void @ERR_new() #5
  tail call void @ERR_set_debug(ptr noundef nonnull @.str, i32 noundef 1546, ptr noundef nonnull @__func__.rsa_to_RSA_pem_encode) #5
  tail call void (i32, i32, ptr, ...) @ERR_set_error(i32 noundef 57, i32 noundef 524550, ptr noundef null) #5
  br label %key2any_encode.exit

9:                                                ; preds = %7
  %10 = and i32 %4, 1
  %.not13 = icmp eq i32 %10, 0
  br i1 %.not13, label %34, label %11

11:                                               ; preds = %9
  %12 = icmp eq ptr %2, null
  br i1 %12, label %13, label %14

13:                                               ; preds = %11
  tail call void @ERR_new() #5
  tail call void @ERR_set_debug(ptr noundef nonnull @.str, i32 noundef 1140, ptr noundef nonnull @__func__.key2any_encode) #5
  tail call void (i32, i32, ptr, ...) @ERR_set_error(i32 noundef 57, i32 noundef 786690, ptr noundef null) #5
  br label %key2any_encode.exit

14:                                               ; preds = %11
  %15 = tail call i32 @RSA_test_flags(ptr noundef nonnull %2, i32 noundef 61440) #5
  %cond = icmp eq i32 %15, 0
  br i1 %cond, label %16, label %33

16:                                               ; preds = %14
  %17 = load ptr, ptr %0, align 8, !tbaa !3
  %18 = tail call ptr @ossl_bio_new_from_core_bio(ptr noundef %17, ptr noundef %1) #5
  %.not28.i = icmp eq ptr %18, null
  br i1 %.not28.i, label %31, label %19

19:                                               ; preds = %16
  %20 = icmp eq ptr %5, null
  br i1 %20, label %24, label %21

21:                                               ; preds = %19
  %22 = getelementptr inbounds nuw i8, ptr %0, i64 24
  %23 = tail call i32 @ossl_pw_set_ossl_passphrase_cb(ptr noundef nonnull %22, ptr noundef nonnull %5, ptr noundef %6) #5
  %.not29.i = icmp eq i32 %23, 0
  br i1 %.not29.i, label %31, label %24

24:                                               ; preds = %21, %19
  %25 = getelementptr inbounds nuw i8, ptr %0, i64 24
  %26 = getelementptr inbounds nuw i8, ptr %0, i64 16
  %27 = load ptr, ptr %26, align 8, !tbaa !15
  %28 = tail call i32 @PEM_ASN1_write_bio_ctx(ptr noundef nonnull @rsa_prv_k2d, ptr noundef nonnull %0, ptr noundef nonnull @.str.4, ptr noundef nonnull %18, ptr noundef nonnull %2, ptr noundef %27, ptr noundef null, i32 noundef 0, ptr noundef nonnull @ossl_pw_pem_password, ptr noundef nonnull %25) #5
  %29 = icmp sgt i32 %28, 0
  %30 = zext i1 %29 to i32
  br label %31

31:                                               ; preds = %24, %21, %16
  %.1.i = phi i32 [ %30, %24 ], [ 0, %21 ], [ 0, %16 ]
  %32 = tail call i32 @BIO_free(ptr noundef %18) #5
  br label %key2any_encode.exit

33:                                               ; preds = %14
  tail call void @ERR_new() #5
  tail call void @ERR_set_debug(ptr noundef nonnull @.str, i32 noundef 1153, ptr noundef nonnull @__func__.key2any_encode) #5
  tail call void (i32, i32, ptr, ...) @ERR_set_error(i32 noundef 57, i32 noundef 524550, ptr noundef null) #5
  br label %key2any_encode.exit

34:                                               ; preds = %9
  %35 = and i32 %4, 2
  %.not14 = icmp eq i32 %35, 0
  br i1 %.not14, label %58, label %36

36:                                               ; preds = %34
  %37 = icmp eq ptr %2, null
  br i1 %37, label %38, label %39

38:                                               ; preds = %36
  tail call void @ERR_new() #5
  tail call void @ERR_set_debug(ptr noundef nonnull @.str, i32 noundef 1140, ptr noundef nonnull @__func__.key2any_encode) #5
  tail call void (i32, i32, ptr, ...) @ERR_set_error(i32 noundef 57, i32 noundef 786690, ptr noundef null) #5
  br label %key2any_encode.exit

39:                                               ; preds = %36
  %40 = tail call i32 @RSA_test_flags(ptr noundef nonnull %2, i32 noundef 61440) #5
  %cond31 = icmp eq i32 %40, 0
  br i1 %cond31, label %41, label %57

41:                                               ; preds = %39
  %42 = load ptr, ptr %0, align 8, !tbaa !3
  %43 = tail call ptr @ossl_bio_new_from_core_bio(ptr noundef %42, ptr noundef %1) #5
  %.not28.i16 = icmp eq ptr %43, null
  br i1 %.not28.i16, label %55, label %44

44:                                               ; preds = %41
  %45 = icmp eq ptr %5, null
  br i1 %45, label %49, label %46

46:                                               ; preds = %44
  %47 = getelementptr inbounds nuw i8, ptr %0, i64 24
  %48 = tail call i32 @ossl_pw_set_ossl_passphrase_cb(ptr noundef nonnull %47, ptr noundef nonnull %5, ptr noundef %6) #5
  %.not29.i17 = icmp eq i32 %48, 0
  br i1 %.not29.i17, label %55, label %49

49:                                               ; preds = %46, %44
  %50 = getelementptr inbounds nuw i8, ptr %0, i64 16
  %51 = load ptr, ptr %50, align 8, !tbaa !15
  %52 = tail call i32 @PEM_ASN1_write_bio_ctx(ptr noundef nonnull @rsa_pub_k2d, ptr noundef nonnull %0, ptr noundef nonnull @.str.5, ptr noundef nonnull %43, ptr noundef nonnull %2, ptr noundef %51, ptr noundef null, i32 noundef 0, ptr noundef null, ptr noundef null) #5
  %53 = icmp sgt i32 %52, 0
  %54 = zext i1 %53 to i32
  br label %55

55:                                               ; preds = %49, %46, %41
  %.1.i18 = phi i32 [ %54, %49 ], [ 0, %46 ], [ 0, %41 ]
  %56 = tail call i32 @BIO_free(ptr noundef %43) #5
  br label %key2any_encode.exit

57:                                               ; preds = %39
  tail call void @ERR_new() #5
  tail call void @ERR_set_debug(ptr noundef nonnull @.str, i32 noundef 1153, ptr noundef nonnull @__func__.key2any_encode) #5
  tail call void (i32, i32, ptr, ...) @ERR_set_error(i32 noundef 57, i32 noundef 524550, ptr noundef null) #5
  br label %key2any_encode.exit

58:                                               ; preds = %34
  tail call void @ERR_new() #5
  tail call void @ERR_set_debug(ptr noundef nonnull @.str, i32 noundef 1546, ptr noundef nonnull @__func__.rsa_to_RSA_pem_encode) #5
  tail call void (i32, i32, ptr, ...) @ERR_set_error(i32 noundef 57, i32 noundef 524550, ptr noundef null) #5
  br label %key2any_encode.exit

key2any_encode.exit:                              ; preds = %57, %55, %38, %33, %31, %13, %58, %8
  %.0 = phi i32 [ 0, %8 ], [ 0, %58 ], [ 0, %13 ], [ %.1.i, %31 ], [ 0, %33 ], [ 0, %38 ], [ %.1.i18, %55 ], [ 0, %57 ]
  ret i32 %.0
}